target datalayout = "e-m:e-p270:32:32-p271:32:32-p272:64:64-i64:64-i128:128-f80:128-n8:16:32:64-S128"
target triple = "x86_64-pc-linux-gnu"

%struct.node = type { i32, ptr, %union.anon }
%union.anon = type { %struct.anon }
%struct.anon = type { ptr, ptr }

@.str.5 = private unnamed_addr constant [56 x i8] c"dup_node: Unable to allocate memory for duplicate node\0A\00", align 1
@.str.6 = private unnamed_addr constant [53 x i8] c"make_node: Unable to allocate memory for leaf class\0A\00", align 1

; Function Attrs: nounwind uwtable
define internal ptr @dup_node(ptr noundef %0) #0 {
  %2 = alloca ptr, align 8
  %3 = alloca ptr, align 8
  %4 = alloca ptr, align 8
  %5 = alloca ptr, align 8
  %6 = alloca ptr, align 8
  store ptr %0, ptr %3, align 8
  %7 = load ptr, ptr %3, align 8
  %8 = icmp ne ptr %7, null
  br i1 %8, label %10, label %9

9:                                                ; preds = %1
  store ptr null, ptr %2, align 8
  br label %84

10:                                               ; preds = %1
  %11 = call noalias ptr @malloc(i64 noundef 32) #9
  store ptr %11, ptr %6, align 8
  %12 = load ptr, ptr %6, align 8
  %13 = icmp ne ptr %12, null
  br i1 %13, label %15, label %14

14:                                               ; preds = %10
  call void (ptr, ...) @cli_errmsg(ptr noundef @.str.5)
  store ptr null, ptr %2, align 8
  br label %84

15:                                               ; preds = %10
  %16 = load ptr, ptr %3, align 8
  %17 = getelementptr inbounds %struct.node, ptr %16, i32 0, i32 0
  %18 = load i32, ptr %17, align 8
  %19 = load ptr, ptr %6, align 8
  %20 = getelementptr inbounds %struct.node, ptr %19, i32 0, i32 0
  store i32 %18, ptr %20, align 8
  %21 = load ptr, ptr %6, align 8
  %22 = getelementptr inbounds %struct.node, ptr %21, i32 0, i32 1
  store ptr null, ptr %22, align 8
  %23 = load ptr, ptr %3, align 8
  %24 = getelementptr inbounds %struct.node, ptr %23, i32 0, i32 0
  %25 = load i32, ptr %24, align 8
  switch i32 %25, label %49 [
    i32 4, label %26
    i32 5, label %32
  ]

26:                                               ; preds = %15
  %27 = load ptr, ptr %3, align 8
  %28 = getelementptr inbounds %struct.node, ptr %27, i32 0, i32 2
  %29 = load i8, ptr %28, align 8
  %30 = load ptr, ptr %6, align 8
  %31 = getelementptr inbounds %struct.node, ptr %30, i32 0, i32 2
  store i8 %29, ptr %31, align 8
  br label %82

32:                                               ; preds = %15
  %33 = call noalias ptr @malloc(i64 noundef 32) #9
  %34 = load ptr, ptr %6, align 8
  %35 = getelementptr inbounds %struct.node, ptr %34, i32 0, i32 2
  store ptr %33, ptr %35, align 8
  %36 = load ptr, ptr %6, align 8
  %37 = getelementptr inbounds %struct.node, ptr %36, i32 0, i32 2
  %38 = load ptr, ptr %37, align 8
  %39 = icmp ne ptr %38, null
  br i1 %39, label %42, label %40

40:                                               ; preds = %32
  call void (ptr, ...) @cli_errmsg(ptr noundef @.str.6)
  %41 = load ptr, ptr %6, align 8
  call void @free(ptr noundef %41) #7
  store ptr null, ptr %2, align 8
  br label %84

42:                                               ; preds = %32
  %43 = load ptr, ptr %6, align 8
  %44 = getelementptr inbounds %struct.node, ptr %43, i32 0, i32 2
  %45 = load ptr, ptr %44, align 8
  %46 = load ptr, ptr %3, align 8
  %47 = getelementptr inbounds %struct.node, ptr %46, i32 0, i32 2
  %48 = load ptr, ptr %47, align 8
  call void @llvm.memcpy.p0.p0.i64(ptr align 1 %45, ptr align 1 %48, i64 32, i1 false)
  br label %82

49:                                               ; preds = %15
  %50 = load ptr, ptr %3, align 8
  %51 = getelementptr inbounds %struct.node, ptr %50, i32 0, i32 2
  %52 = getelementptr inbounds %struct.anon, ptr %51, i32 0, i32 0
  %53 = load ptr, ptr %52, align 8
  %54 = call ptr @dup_node(ptr noundef %53)
  store ptr %54, ptr %4, align 8
  %55 = load ptr, ptr %3, align 8
  %56 = getelementptr inbounds %struct.node, ptr %55, i32 0, i32 2
  %57 = getelementptr inbounds %struct.anon, ptr %56, i32 0, i32 1
  %58 = load ptr, ptr %57, align 8
  %59 = call ptr @dup_node(ptr noundef %58)
  store ptr %59, ptr %5, align 8
  %60 = load ptr, ptr %4, align 8
  %61 = load ptr, ptr %6, align 8
  %62 = getelementptr inbounds %struct.node, ptr %61, i32 0, i32 2
  %63 = getelementptr inbounds %struct.anon, ptr %62, i32 0, i32 0
  store ptr %60, ptr %63, align 8
  %64 = load ptr, ptr %5, align 8
  %65 = load ptr, ptr %6, align 8
  %66 = getelementptr inbounds %struct.node, ptr %65, i32 0, i32 2
  %67 = getelementptr inbounds %struct.anon, ptr %66, i32 0, i32 1
  store ptr %64, ptr %67, align 8
  %68 = load ptr, ptr %4, align 8
  %69 = icmp ne ptr %68, null
  br i1 %69, label %70, label %74

70:                                               ; preds = %49
  %71 = load ptr, ptr %6, align 8
  %72 = load ptr, ptr %4, align 8
  %73 = getelementptr inbounds %struct.node, ptr %72, i32 0, i32 1
  store ptr %71, ptr %73, align 8
  br label %74

74:                                               ; preds = %70, %49
  %75 = load ptr, ptr %5, align 8
  %76 = icmp ne ptr %75, null
  br i1 %76, label %77, label %81

77:                                               ; preds = %74
  %78 = load ptr, ptr %6, align 8
  %79 = load ptr, ptr %5, align 8
  %80 = getelementptr inbounds %struct.node, ptr %79, i32 0, i32 1
  store ptr %78, ptr %80, align 8
  br label %81

81:                                               ; preds = %77, %74
  br label %82

82:                                               ; preds = %81, %42, %26
  %83 = load ptr, ptr %6, align 8
  store ptr %83, ptr %2, align 8
  br label %84

84:                                               ; preds = %82, %40, %14, %9
  %85 = load ptr, ptr %2, align 8
  ret ptr %85
}