; Function Attrs: nounwind uwtable
define internal fastcc noundef ptr @dup_node(ptr noundef readonly %0) unnamed_addr #0 {
  %.not = icmp eq ptr %0, null
  br i1 %.not, label %33, label %2

2:                                                ; preds = %1
  %3 = tail call noalias dereferenceable_or_null(32) ptr @malloc(i64 noundef 32) #10
  %.not32 = icmp eq ptr %3, null
  br i1 %.not32, label %4, label %5

4:                                                ; preds = %2
  tail call void (ptr, ...) @cli_errmsg(ptr noundef nonnull @.str.5) #8
  br label %33

5:                                                ; preds = %2
  %6 = load i32, ptr %0, align 8
  store i32 %6, ptr %3, align 8
  %7 = getelementptr inbounds i8, ptr %3, i64 8
  store ptr null, ptr %7, align 8
  switch i32 %6, label %19 [
    i32 4, label %8
    i32 5, label %12
  ]

8:                                                ; preds = %5
  %9 = getelementptr inbounds i8, ptr %0, i64 16
  %10 = load i8, ptr %9, align 8
  %11 = getelementptr inbounds i8, ptr %3, i64 16
  store i8 %10, ptr %11, align 8
  br label %33

12:                                               ; preds = %5
  %13 = tail call noalias dereferenceable_or_null(32) ptr @malloc(i64 noundef 32) #10
  %14 = getelementptr inbounds i8, ptr %3, i64 16
  store ptr %13, ptr %14, align 8
  %.not33 = icmp eq ptr %13, null
  br i1 %.not33, label %15, label %16

15:                                               ; preds = %12
  tail call void (ptr, ...) @cli_errmsg(ptr noundef nonnull @.str.6) #8
  tail call void @free(ptr noundef nonnull %3) #8
  br label %33

16:                                               ; preds = %12
  %17 = getelementptr inbounds i8, ptr %0, i64 16
  %18 = load ptr, ptr %17, align 8
  tail call void @llvm.memcpy.p0.p0.i64(ptr noundef nonnull align 1 dereferenceable(32) %13, ptr noundef nonnull align 1 dereferenceable(32) %18, i64 32, i1 false)
  br label %33

19:                                               ; preds = %5
  %20 = getelementptr inbounds i8, ptr %0, i64 16
  %21 = load ptr, ptr %20, align 8
  %22 = tail call fastcc ptr @dup_node(ptr noundef %21)
  %23 = getelementptr inbounds i8, ptr %0, i64 24
  %24 = load ptr, ptr %23, align 8
  %25 = tail call fastcc ptr @dup_node(ptr noundef %24)
  %26 = getelementptr inbounds i8, ptr %3, i64 16
  store ptr %22, ptr %26, align 8
  %27 = getelementptr inbounds i8, ptr %3, i64 24
  store ptr %25, ptr %27, align 8
  %.not34 = icmp eq ptr %22, null
  br i1 %.not34, label %30, label %28

28:                                               ; preds = %19
  %29 = getelementptr inbounds i8, ptr %22, i64 8
  store ptr %3, ptr %29, align 8
  br label %30

30:                                               ; preds = %28, %19
  %.not35 = icmp eq ptr %25, null
  br i1 %.not35, label %33, label %31

31:                                               ; preds = %30
  %32 = getelementptr inbounds i8, ptr %25, i64 8
  store ptr %3, ptr %32, align 8
  br label %33

33:                                               ; preds = %8, %16, %31, %30, %1, %15, %4
  %.0 = phi ptr [ null, %15 ], [ null, %4 ], [ null, %1 ], [ %3, %30 ], [ %3, %31 ], [ %3, %16 ], [ %3, %8 ]
  ret ptr %.0
}